target datalayout = "e-m:e-p270:32:32-p271:32:32-p272:64:64-i64:64-i128:128-f80:128-n8:16:32:64-S128"
target triple = "x86_64-pc-linux-gnu"

@_ZTI3Dog = linkonce_odr hidden constant { ptr, ptr, ptr } { ptr getelementptr inbounds (ptr, ptr @_ZTVN10__cxxabiv120__si_class_type_infoE, i64 2), ptr @_ZTS3Dog, ptr @_ZTI6Animal }, comdat, align 8
@_ZTI8Labrador = linkonce_odr hidden constant { ptr, ptr, ptr } { ptr getelementptr inbounds (ptr, ptr @_ZTVN10__cxxabiv120__si_class_type_infoE, i64 2), ptr @_ZTS8Labrador, ptr @_ZTI3Dog }, comdat, align 8
@_ZTI9Chihuahua = linkonce_odr hidden constant { ptr, ptr, ptr } { ptr getelementptr inbounds (ptr, ptr @_ZTVN10__cxxabiv120__si_class_type_infoE, i64 2), ptr @_ZTS9Chihuahua, ptr @_ZTI3Dog }, comdat, align 8
@_ZTI3Cat = linkonce_odr hidden constant { ptr, ptr, ptr } { ptr getelementptr inbounds (ptr, ptr @_ZTVN10__cxxabiv120__si_class_type_infoE, i64 2), ptr @_ZTS3Cat, ptr @_ZTI6Animal }, comdat, align 8
@_ZTI7Panther = linkonce_odr hidden constant { ptr, ptr, ptr } { ptr getelementptr inbounds (ptr, ptr @_ZTVN10__cxxabiv120__si_class_type_infoE, i64 2), ptr @_ZTS7Panther, ptr @_ZTI3Cat }, comdat, align 8

; Function Attrs: mustprogress nounwind uwtable
define hidden noundef ptr @_ZN6Animal12type_of_kindENS_4KindE(i32 noundef %0) #0 align 2 {
  %2 = alloca ptr, align 8
  %3 = alloca i32, align 4
  store i32 %0, ptr %3, align 4
  %4 = load i32, ptr %3, align 4
  switch i32 %4, label %11 [
    i32 0, label %5
    i32 100, label %5
    i32 101, label %6
    i32 102, label %7
    i32 199, label %8
    i32 200, label %8
    i32 201, label %9
    i32 299, label %10
  ]

5:                                                ; preds = %1, %1
  br label %11

6:                                                ; preds = %1
  store ptr @_ZTI8Labrador, ptr %2, align 8
  br label %26

7:                                                ; preds = %1
  store ptr @_ZTI9Chihuahua, ptr %2, align 8
  br label %26

8:                                                ; preds = %1, %1
  br label %11

9:                                                ; preds = %1
  store ptr @_ZTI7Panther, ptr %2, align 8
  br label %26

10:                                               ; preds = %1
  br label %11

11:                                               ; preds = %10, %8, %5, %1
  %12 = load i32, ptr %3, align 4
  %13 = icmp sge i32 %12, 100
  br i1 %13, label %14, label %18

14:                                               ; preds = %11
  %15 = load i32, ptr %3, align 4
  %16 = icmp sle i32 %15, 199
  br i1 %16, label %17, label %18

17:                                               ; preds = %14
  store ptr @_ZTI3Dog, ptr %2, align 8
  br label %26

18:                                               ; preds = %14, %11
  %19 = load i32, ptr %3, align 4
  %20 = icmp sge i32 %19, 200
  br i1 %20, label %21, label %25

21:                                               ; preds = %18
  %22 = load i32, ptr %3, align 4
  %23 = icmp sle i32 %22, 299
  br i1 %23, label %24, label %25

24:                                               ; preds = %21
  store ptr @_ZTI3Cat, ptr %2, align 8
  br label %26

25:                                               ; preds = %21, %18
  store ptr null, ptr %2, align 8
  br label %26

26:                                               ; preds = %25, %24, %17, %9, %7, %6
  %27 = load ptr, ptr %2, align 8
  ret ptr %27
}