; Function Attrs: mustprogress nofree norecurse nosync nounwind willreturn memory(none) uwtable
define hidden noundef ptr @_ZN6Animal12type_of_kindENS_4KindE(i32 noundef %0) local_unnamed_addr #6 align 2 {
  switch i32 %0, label %4 [
    i32 201, label %3
    i32 102, label %2
    i32 101, label %8
  ]

2:                                                ; preds = %1
  br label %8

3:                                                ; preds = %1
  br label %8

4:                                                ; preds = %1
  %5 = add i32 %0, -100
  %or.cond = icmp ult i32 %5, 100
  br i1 %or.cond, label %8, label %6

6:                                                ; preds = %4
  %7 = add i32 %0, -200
  %or.cond3 = icmp ult i32 %7, 100
  %_ZTI3Cat. = select i1 %or.cond3, ptr @_ZTI3Cat, ptr null
  br label %8

8:                                                ; preds = %6, %4, %1, %3, %2
  %.0 = phi ptr [ @_ZTI9Chihuahua, %2 ], [ @_ZTI7Panther, %3 ], [ @_ZTI8Labrador, %1 ], [ @_ZTI3Dog, %4 ], [ %_ZTI3Cat., %6 ]
  ret ptr %.0
}